; Function Attrs: mustprogress nounwind uwtable
define dso_local void @_ZNK4llvm5APInt8sshl_satERKS0_(ptr dead_on_unwind noalias writable writeonly sret(%"class.llvm::APInt") align 8 captures(none) %0, ptr noundef nonnull readonly align 8 captures(none) dereferenceable(12) %1, ptr noundef nonnull readonly align 8 captures(none) dereferenceable(12) %2) local_unnamed_addr #0 align 2 {
  %4 = getelementptr inbounds nuw i8, ptr %1, i64 8
  %5 = load i32, ptr %4, align 8
  %6 = zext i32 %5 to i64
  %7 = getelementptr inbounds nuw i8, ptr %2, i64 8
  %8 = load i32, ptr %7, align 8
  %9 = icmp ult i32 %8, 65
  %.pre.i.i = load ptr, ptr %2, align 8
  %10 = ptrtoint ptr %.pre.i.i to i64
  br i1 %9, label %_ZNK4llvm5APInt3ugtEm.exit.i, label %.lr.ph.i.i.i.i.i

.lr.ph.i.i.i.i.i:                                 ; preds = %3
  %11 = zext i32 %8 to i64
  %12 = add nuw nsw i64 %11, 63
  %13 = lshr i64 %12, 6
  br label %14

14:                                               ; preds = %19, %.lr.ph.i.i.i.i.i
  %indvars.iv.i.i.i.i = phi i64 [ %indvars.iv.next.i.i.i.i, %19 ], [ %13, %.lr.ph.i.i.i.i.i ]
  %.016.i.i.i.i.i = phi i32 [ %20, %19 ], [ 0, %.lr.ph.i.i.i.i.i ]
  %indvars.iv.next.i.i.i.i = add nsw i64 %indvars.iv.i.i.i.i, -1
  %15 = and i64 %indvars.iv.next.i.i.i.i, 4294967295
  %16 = getelementptr inbounds nuw i64, ptr %.pre.i.i, i64 %15
  %17 = load i64, ptr %16, align 8
  %18 = icmp eq i64 %17, 0
  br i1 %18, label %19, label %22

19:                                               ; preds = %14
  %20 = add i32 %.016.i.i.i.i.i, 64
  %21 = icmp samesign ugt i64 %indvars.iv.i.i.i.i, 1
  br i1 %21, label %14, label %_ZNK4llvm5APInt13getActiveBitsEv.exit.i.i, !llvm.loop !9

22:                                               ; preds = %14
  %23 = tail call range(i64 0, 65) i64 @llvm.ctlz.i64(i64 %17, i1 true)
  %24 = trunc nuw nsw i64 %23 to i32
  %25 = or disjoint i32 %.016.i.i.i.i.i, %24
  br label %_ZNK4llvm5APInt13getActiveBitsEv.exit.i.i

_ZNK4llvm5APInt13getActiveBitsEv.exit.i.i:        ; preds = %19, %22
  %.1.i.i.i.i.i = phi i32 [ %25, %22 ], [ %20, %19 ]
  %26 = and i32 %8, 63
  %.not.i.i.i.i.i = icmp eq i32 %26, 0
  %.neg.i.i.i.i.i = or i32 %8, -64
  %.neg13.i.i.i.i.i = select i1 %.not.i.i.i.i.i, i32 0, i32 %.neg.i.i.i.i.i
  %27 = add i32 %.neg13.i.i.i.i.i, %.1.i.i.i.i.i
  %28 = sub i32 %8, %27
  %29 = icmp ugt i32 %28, 64
  br i1 %29, label %_ZNK4llvm5APInt15getLimitedValueEm.exit, label %_ZNK4llvm5APInt13getActiveBitsEv.exit.i._ZNK4llvm5APInt3ugtEm.exit_crit_edge.i

_ZNK4llvm5APInt13getActiveBitsEv.exit.i._ZNK4llvm5APInt3ugtEm.exit_crit_edge.i: ; preds = %_ZNK4llvm5APInt13getActiveBitsEv.exit.i.i
  %.0.i.i.pre.i = load i64, ptr %.pre.i.i, align 8
  br label %_ZNK4llvm5APInt3ugtEm.exit.i

_ZNK4llvm5APInt3ugtEm.exit.i:                     ; preds = %_ZNK4llvm5APInt13getActiveBitsEv.exit.i._ZNK4llvm5APInt3ugtEm.exit_crit_edge.i, %3
  %.0.i.i.i = phi i64 [ %.0.i.i.pre.i, %_ZNK4llvm5APInt13getActiveBitsEv.exit.i._ZNK4llvm5APInt3ugtEm.exit_crit_edge.i ], [ %10, %3 ]
  %30 = icmp ugt i64 %.0.i.i.i, %6
  br i1 %30, label %_ZNK4llvm5APInt15getLimitedValueEm.exit, label %31

31:                                               ; preds = %_ZNK4llvm5APInt3ugtEm.exit.i
  %.0.in.i.i = select i1 %9, ptr %2, ptr %.pre.i.i
  %.0.i.i = load i64, ptr %.0.in.i.i, align 8
  %32 = trunc i64 %.0.i.i to i32
  br label %_ZNK4llvm5APInt15getLimitedValueEm.exit

_ZNK4llvm5APInt15getLimitedValueEm.exit:          ; preds = %_ZNK4llvm5APInt13getActiveBitsEv.exit.i.i, %_ZNK4llvm5APInt3ugtEm.exit.i, %31
  %33 = phi i32 [ %32, %31 ], [ %5, %_ZNK4llvm5APInt3ugtEm.exit.i ], [ %5, %_ZNK4llvm5APInt13getActiveBitsEv.exit.i.i ]
  tail call void @_ZNK4llvm5APInt8sshl_satEj(ptr dead_on_unwind writable sret(%"class.llvm::APInt") align 8 %0, ptr noundef nonnull align 8 dereferenceable(12) %1, i32 noundef %33)
  ret void
}